(dp0
S'width'
p1
I700
sS'botList'
p2
(lp3
ctor
Tor
p4
acodin
Odin
p5
acloke
Loke
p6
acidunn
Idunn
p7
acfrigg
Frigg
p8
acfroya
Froya
p9
acsiv
Siv
p10
acskuld
Skuld
p11
acsnotra
Snotra
p12
acbalder
Balder
p13
achel
Hel
p14
acbestla
Bestla
p15
asS'height'
p7
I500
s.
